target datalayout = "e-m:e-p270:32:32-p271:32:32-p272:64:64-i64:64-i128:128-f80:128-n8:16:32:64-S128"
target triple = "x86_64-pc-linux-gnu"

%struct.strbuf = type { i64, i64, ptr }

@.str.1 = private unnamed_addr constant [4 x i8] c"%s\0A\00", align 1
@__const.git_config_val_global.buf = private unnamed_addr constant %struct.strbuf { i64 0, i64 0, ptr @strbuf_slopbuf }, align 8

; Function Attrs: nounwind uwtable
define internal ptr @git_config_val_global(i32 noundef %0) #0 {
  %2 = alloca ptr, align 8
  %3 = alloca i32, align 4
  %4 = alloca %struct.strbuf, align 8
  %5 = alloca ptr, align 8
  %6 = alloca ptr, align 8
  %7 = alloca i64, align 8
  %8 = alloca i32, align 4
  store i32 %0, ptr %3, align 4, !tbaa !4
  call void @llvm.lifetime.start.p0(i64 24, ptr %4) #9
  call void @llvm.memcpy.p0.p0.i64(ptr align 8 %4, ptr align 8 @__const.git_config_val_global.buf, i64 24, i1 false)
  call void @llvm.lifetime.start.p0(i64 8, ptr %5) #9
  call void @llvm.lifetime.start.p0(i64 8, ptr %6) #9
  call void @llvm.lifetime.start.p0(i64 8, ptr %7) #9
  call void @git_global_config_paths(ptr noundef %5, ptr noundef %6)
  %9 = load ptr, ptr %6, align 8, !tbaa !11
  %10 = icmp ne ptr %9, null
  br i1 %10, label %11, label %21

11:                                               ; preds = %1
  %12 = load ptr, ptr %6, align 8, !tbaa !11
  %13 = load i8, ptr %12, align 1, !tbaa !23
  %14 = sext i8 %13 to i32
  %15 = icmp ne i32 %14, 0
  br i1 %15, label %16, label %21

16:                                               ; preds = %11
  %17 = load ptr, ptr %6, align 8, !tbaa !11
  %18 = load ptr, ptr %6, align 8, !tbaa !11
  %19 = call i32 @normalize_path_copy(ptr noundef %17, ptr noundef %18)
  %20 = load ptr, ptr %6, align 8, !tbaa !11
  call void (ptr, ptr, ...) @strbuf_addf(ptr noundef %4, ptr noundef @.str.1, ptr noundef %20)
  br label %21

21:                                               ; preds = %16, %11, %1
  %22 = load ptr, ptr %5, align 8, !tbaa !11
  %23 = icmp ne ptr %22, null
  br i1 %23, label %24, label %34

24:                                               ; preds = %21
  %25 = load ptr, ptr %5, align 8, !tbaa !11
  %26 = load i8, ptr %25, align 1, !tbaa !23
  %27 = sext i8 %26 to i32
  %28 = icmp ne i32 %27, 0
  br i1 %28, label %29, label %34

29:                                               ; preds = %24
  %30 = load ptr, ptr %5, align 8, !tbaa !11
  %31 = load ptr, ptr %5, align 8, !tbaa !11
  %32 = call i32 @normalize_path_copy(ptr noundef %30, ptr noundef %31)
  %33 = load ptr, ptr %5, align 8, !tbaa !11
  call void (ptr, ptr, ...) @strbuf_addf(ptr noundef %4, ptr noundef @.str.1, ptr noundef %33)
  br label %34

34:                                               ; preds = %29, %24, %21
  %35 = load ptr, ptr %6, align 8, !tbaa !11
  call void @free(ptr noundef %35) #9
  %36 = load ptr, ptr %5, align 8, !tbaa !11
  call void @free(ptr noundef %36) #9
  call void @strbuf_trim_trailing_newline(ptr noundef %4)
  %37 = getelementptr inbounds nuw %struct.strbuf, ptr %4, i32 0, i32 1
  %38 = load i64, ptr %37, align 8, !tbaa !37
  %39 = icmp eq i64 %38, 0
  br i1 %39, label %40, label %41

40:                                               ; preds = %34
  call void @strbuf_release(ptr noundef %4)
  store ptr null, ptr %2, align 8
  store i32 1, ptr %8, align 4
  br label %43

41:                                               ; preds = %34
  %42 = call ptr @strbuf_detach(ptr noundef %4, ptr noundef %7)
  store ptr %42, ptr %2, align 8
  store i32 1, ptr %8, align 4
  br label %43

43:                                               ; preds = %41, %40
  call void @llvm.lifetime.end.p0(i64 8, ptr %7) #9
  call void @llvm.lifetime.end.p0(i64 8, ptr %6) #9
  call void @llvm.lifetime.end.p0(i64 8, ptr %5) #9
  call void @llvm.lifetime.end.p0(i64 24, ptr %4) #9
  %44 = load ptr, ptr %2, align 8
  ret ptr %44
}