; Function Attrs: nounwind uwtable
define internal ptr @git_config_val_global(i32 %0) #0 {
  %2 = alloca %struct.strbuf, align 8
  %3 = alloca ptr, align 8
  %4 = alloca ptr, align 8
  %5 = alloca i64, align 8
  call void @llvm.lifetime.start.p0(i64 24, ptr nonnull %2) #10
  call void @llvm.memcpy.p0.p0.i64(ptr noundef nonnull align 8 dereferenceable(24) %2, ptr noundef nonnull align 8 dereferenceable(24) @__const.git_config_val_global.buf, i64 24, i1 false)
  call void @llvm.lifetime.start.p0(i64 8, ptr nonnull %3) #10
  call void @llvm.lifetime.start.p0(i64 8, ptr nonnull %4) #10
  call void @llvm.lifetime.start.p0(i64 8, ptr nonnull %5) #10
  call void @git_global_config_paths(ptr noundef nonnull %3, ptr noundef nonnull %4) #10
  %6 = load ptr, ptr %4, align 8, !tbaa !4
  %.not = icmp eq ptr %6, null
  br i1 %.not, label %12, label %7

7:                                                ; preds = %1
  %8 = load i8, ptr %6, align 1, !tbaa !14
  %.not3 = icmp eq i8 %8, 0
  br i1 %.not3, label %12, label %9

9:                                                ; preds = %7
  %10 = call i32 @normalize_path_copy(ptr noundef nonnull %6, ptr noundef nonnull %6) #10
  %11 = load ptr, ptr %4, align 8, !tbaa !4
  call void (ptr, ptr, ...) @strbuf_addf(ptr noundef nonnull %2, ptr noundef nonnull @.str.1, ptr noundef %11) #10
  br label %12

12:                                               ; preds = %9, %7, %1
  %13 = load ptr, ptr %3, align 8, !tbaa !4
  %.not4 = icmp eq ptr %13, null
  br i1 %.not4, label %19, label %14

14:                                               ; preds = %12
  %15 = load i8, ptr %13, align 1, !tbaa !14
  %.not5 = icmp eq i8 %15, 0
  br i1 %.not5, label %19, label %16

16:                                               ; preds = %14
  %17 = call i32 @normalize_path_copy(ptr noundef nonnull %13, ptr noundef nonnull %13) #10
  %18 = load ptr, ptr %3, align 8, !tbaa !4
  call void (ptr, ptr, ...) @strbuf_addf(ptr noundef nonnull %2, ptr noundef nonnull @.str.1, ptr noundef %18) #10
  br label %19

19:                                               ; preds = %16, %14, %12
  %20 = load ptr, ptr %4, align 8, !tbaa !4
  call void @free(ptr noundef %20) #10
  %21 = load ptr, ptr %3, align 8, !tbaa !4
  call void @free(ptr noundef %21) #10
  call void @strbuf_trim_trailing_newline(ptr noundef nonnull %2) #10
  %22 = getelementptr inbounds nuw i8, ptr %2, i64 8
  %23 = load i64, ptr %22, align 8, !tbaa !28
  %24 = icmp eq i64 %23, 0
  br i1 %24, label %25, label %26

25:                                               ; preds = %19
  call void @strbuf_release(ptr noundef nonnull %2) #10
  br label %28

26:                                               ; preds = %19
  %27 = call ptr @strbuf_detach(ptr noundef nonnull %2, ptr noundef nonnull %5) #10
  br label %28

28:                                               ; preds = %26, %25
  %.0 = phi ptr [ null, %25 ], [ %27, %26 ]
  call void @llvm.lifetime.end.p0(i64 8, ptr nonnull %5) #10
  call void @llvm.lifetime.end.p0(i64 8, ptr nonnull %4) #10
  call void @llvm.lifetime.end.p0(i64 8, ptr nonnull %3) #10
  call void @llvm.lifetime.end.p0(i64 24, ptr nonnull %2) #10
  ret ptr %.0
}